target datalayout = "e-m:e-p270:32:32-p271:32:32-p272:64:64-i64:64-i128:128-f80:128-n8:16:32:64-S128"
target triple = "x86_64-pc-linux-gnu"

; Function Attrs: mustprogress nounwind uwtable
define hidden noundef double @_ZN2cv3gtr23generateRandomLaplacianEdd(double noundef %0, double noundef %1) #4 {
  %3 = alloca double, align 8
  %4 = alloca double, align 8
  %5 = alloca double, align 8
  %6 = alloca double, align 8
  %7 = alloca double, align 8
  %8 = alloca i32, align 4
  store double %0, ptr %4, align 8, !tbaa !3
  store double %1, ptr %5, align 8, !tbaa !3
  call void @llvm.lifetime.start.p0(i64 8, ptr %6) #3
  %9 = call i32 @rand() #3
  %10 = sitofp i32 %9 to double
  %11 = fdiv double %10, 0x41DFFFFFFFC00000
  store double %11, ptr %6, align 8, !tbaa !3
  call void @llvm.lifetime.start.p0(i64 8, ptr %7) #3
  %12 = call i32 @rand() #3
  %13 = sitofp i32 %12 to double
  %14 = fdiv double %13, 0x41DFFFFFFFC00000
  store double %14, ptr %7, align 8, !tbaa !3
  %15 = load double, ptr %6, align 8, !tbaa !3
  %16 = fcmp ogt double %15, 5.000000e-01
  br i1 %16, label %17, label %23

17:                                               ; preds = %2
  %18 = load double, ptr %5, align 8, !tbaa !3
  %19 = load double, ptr %4, align 8, !tbaa !3
  %20 = load double, ptr %7, align 8, !tbaa !3
  %21 = call double @log(double noundef %20) #3, !tbaa !7
  %22 = call double @llvm.fmuladd.f64(double %19, double %21, double %18)
  store double %22, ptr %3, align 8
  store i32 1, ptr %8, align 4
  br label %30

23:                                               ; preds = %2
  %24 = load double, ptr %5, align 8, !tbaa !3
  %25 = load double, ptr %4, align 8, !tbaa !3
  %26 = load double, ptr %7, align 8, !tbaa !3
  %27 = call double @log(double noundef %26) #3, !tbaa !7
  %28 = fneg double %25
  %29 = call double @llvm.fmuladd.f64(double %28, double %27, double %24)
  store double %29, ptr %3, align 8
  store i32 1, ptr %8, align 4
  br label %30

30:                                               ; preds = %23, %17
  call void @llvm.lifetime.end.p0(i64 8, ptr %7) #3
  call void @llvm.lifetime.end.p0(i64 8, ptr %6) #3
  %31 = load double, ptr %3, align 8
  ret double %31
}