; Function Attrs: mustprogress nounwind uwtable
define hidden noundef double @_ZN2cv3gtr23generateRandomLaplacianEdd(double noundef %0, double noundef %1) local_unnamed_addr #3 {
  %3 = tail call i32 @rand() #20
  %4 = sitofp i32 %3 to double
  %5 = fdiv double %4, 0x41DFFFFFFFC00000
  %6 = tail call i32 @rand() #20
  %7 = sitofp i32 %6 to double
  %8 = fdiv double %7, 0x41DFFFFFFFC00000
  %9 = fcmp ogt double %5, 5.000000e-01
  %10 = tail call double @log(double noundef %8) #20, !tbaa !3
  %11 = fneg double %0
  %.sink = select i1 %9, double %0, double %11
  %12 = tail call double @llvm.fmuladd.f64(double %.sink, double %10, double %1)
  ret double %12
}